; Function Attrs: mustprogress uwtable
define internal fastcc noundef range(i32 0, 2) i32 @_ZL24stbi__decode_jpeg_headerP10stbi__jpegi(ptr noundef nonnull captures(none) initializes((18472, 18473), (18504, 18512)) %0, i32 noundef range(i32 0, 3) %1) unnamed_addr #4 {
  %3 = getelementptr inbounds nuw i8, ptr %0, i64 18504
  store i32 0, ptr %3, align 8, !tbaa !139
  %4 = getelementptr inbounds nuw i8, ptr %0, i64 18508
  store i32 -1, ptr %4, align 4, !tbaa !74
  %5 = getelementptr inbounds nuw i8, ptr %0, i64 18472
  store i8 -1, ptr %5, align 8, !tbaa !75
  %6 = tail call fastcc noundef zeroext i8 @_ZL16stbi__get_markerP10stbi__jpeg(ptr noundef %0)
  %7 = icmp eq i8 %6, -40
  br i1 %7, label %9, label %8

8:                                                ; preds = %2
  store ptr @.str.40, ptr @_ZL22stbi__g_failure_reason, align 8, !tbaa !5
  br label %.loopexit30

9:                                                ; preds = %2
  %10 = icmp eq i32 %1, 1
  br i1 %10, label %.loopexit30, label %11

11:                                               ; preds = %9
  %12 = tail call fastcc noundef zeroext i8 @_ZL16stbi__get_markerP10stbi__jpeg(ptr noundef %0)
  %.034 = zext i8 %12 to i32
  %13 = and i32 %.034, 254
  %or.cond35 = icmp ne i32 %13, 192
  %14 = icmp ne i8 %12, -62
  %spec.select36 = and i1 %14, %or.cond35
  br i1 %spec.select36, label %.lr.ph38, label %._crit_edge

.loopexit:                                        ; preds = %_ZL12stbi__at_eofP13stbi__context.exit.thread, %18
  %.1.in.lcssa = phi i8 [ %19, %18 ], [ %38, %_ZL12stbi__at_eofP13stbi__context.exit.thread ]
  %.0 = zext i8 %.1.in.lcssa to i32
  %15 = and i32 %.0, 254
  %or.cond = icmp ne i32 %15, 192
  %16 = icmp ne i8 %.1.in.lcssa, -62
  %spec.select = and i1 %16, %or.cond
  br i1 %spec.select, label %.lr.ph38, label %._crit_edge, !llvm.loop !245

.lr.ph38:                                         ; preds = %11, %.loopexit
  %.037 = phi i32 [ %.0, %.loopexit ], [ %.034, %11 ]
  %17 = tail call fastcc noundef i32 @_ZL20stbi__process_markerP10stbi__jpegi(ptr noundef %0, i32 noundef %.037)
  %.not23 = icmp eq i32 %17, 0
  br i1 %.not23, label %.loopexit30, label %18

18:                                               ; preds = %.lr.ph38
  %19 = tail call fastcc noundef zeroext i8 @_ZL16stbi__get_markerP10stbi__jpeg(ptr noundef %0)
  %20 = icmp eq i8 %19, -1
  br i1 %20, label %.lr.ph, label %.loopexit

.lr.ph:                                           ; preds = %18, %_ZL12stbi__at_eofP13stbi__context.exit.thread
  %21 = load ptr, ptr %0, align 8, !tbaa !69
  %22 = getelementptr inbounds nuw i8, ptr %21, i64 16
  %23 = load ptr, ptr %22, align 8, !tbaa !22
  %.not.i = icmp eq ptr %23, null
  br i1 %.not.i, label %_ZL12stbi__at_eofP13stbi__context.exit, label %24

24:                                               ; preds = %.lr.ph
  %25 = getelementptr inbounds nuw i8, ptr %21, i64 32
  %26 = load ptr, ptr %25, align 8, !tbaa !127
  %27 = getelementptr inbounds nuw i8, ptr %21, i64 40
  %28 = load ptr, ptr %27, align 8, !tbaa !14
  %29 = tail call noundef i32 %26(ptr noundef %28)
  %.not6.i = icmp eq i32 %29, 0
  br i1 %.not6.i, label %_ZL12stbi__at_eofP13stbi__context.exit.thread, label %30

30:                                               ; preds = %24
  %31 = getelementptr inbounds nuw i8, ptr %21, i64 48
  %32 = load i32, ptr %31, align 8, !tbaa !18
  %33 = icmp eq i32 %32, 0
  br i1 %33, label %_ZL12stbi__at_eofP13stbi__context.exit.thread27, label %_ZL12stbi__at_eofP13stbi__context.exit

_ZL12stbi__at_eofP13stbi__context.exit:           ; preds = %.lr.ph, %30
  %34 = getelementptr inbounds nuw i8, ptr %21, i64 192
  %35 = load ptr, ptr %34, align 8, !tbaa !21
  %36 = getelementptr inbounds nuw i8, ptr %21, i64 200
  %37 = load ptr, ptr %36, align 8, !tbaa !24
  %.not = icmp ult ptr %35, %37
  br i1 %.not, label %_ZL12stbi__at_eofP13stbi__context.exit.thread, label %_ZL12stbi__at_eofP13stbi__context.exit.thread27

_ZL12stbi__at_eofP13stbi__context.exit.thread27:  ; preds = %30, %_ZL12stbi__at_eofP13stbi__context.exit
  store ptr @.str.41, ptr @_ZL22stbi__g_failure_reason, align 8, !tbaa !5
  br label %.loopexit30

_ZL12stbi__at_eofP13stbi__context.exit.thread:    ; preds = %24, %_ZL12stbi__at_eofP13stbi__context.exit
  %38 = tail call fastcc noundef zeroext i8 @_ZL16stbi__get_markerP10stbi__jpeg(ptr noundef %0)
  %39 = icmp eq i8 %38, -1
  br i1 %39, label %.lr.ph, label %.loopexit, !llvm.loop !246

._crit_edge:                                      ; preds = %.loopexit, %11
  %.0.in.lcssa = phi i8 [ %12, %11 ], [ %.1.in.lcssa, %.loopexit ]
  %40 = icmp eq i8 %.0.in.lcssa, -62
  %41 = zext i1 %40 to i32
  %42 = getelementptr inbounds nuw i8, ptr %0, i64 18480
  store i32 %41, ptr %42, align 8, !tbaa !90
  %43 = tail call fastcc noundef i32 @_ZL26stbi__process_frame_headerP10stbi__jpegi(ptr noundef %0, i32 noundef %1)
  br label %.loopexit30

.loopexit30:                                      ; preds = %.lr.ph38, %._crit_edge, %9, %_ZL12stbi__at_eofP13stbi__context.exit.thread27, %8
  %.021 = phi i32 [ 0, %_ZL12stbi__at_eofP13stbi__context.exit.thread27 ], [ 0, %8 ], [ 1, %9 ], [ %43, %._crit_edge ], [ 0, %.lr.ph38 ]
  ret i32 %.021
}